Certificate:
    Data:
        Version: 3 (0x2)
        Serial Number:
            18:b4:78:10:76:34:9f:f5:85:ad:13:4b:e6:be:12:51
    Signature Algorithm: sha256WithRSAEncryption
        Issuer: CN=Easy-RSA CA
        Validity
            Not Before: Jul 24 23:19:11 2021 GMT
            Not After : Oct 27 23:19:11 2023 GMT
        Subject: CN=client1.domain.tld
        Subject Public Key Info:
            Public Key Algorithm: rsaEncryption
                Public-Key: (2048 bit)
                Modulus:
                    00:db:69:dd:ff:b0:0c:76:c1:d4:0e:9d:da:03:51:
                    bb:ca:1b:b7:08:0f:84:c7:ab:ca:03:da:43:b9:40:
                    17:ba:5b:3a:68:a0:cc:f7:9f:45:28:0d:57:a1:79:
                    27:d8:0f:31:8f:f6:f0:33:53:8f:df:9a:94:d6:95:
                    63:d9:3c:67:7a:66:98:39:fa:4f:59:5b:b9:db:f3:
                    32:ce:3a:88:95:24:8a:08:5b:bf:74:43:68:4b:28:
                    b7:9e:5c:91:dd:dc:74:c9:23:73:ae:1b:81:f6:56:
                    4b:9c:eb:25:34:73:8c:be:7d:4b:91:27:da:a2:88:
                    2d:4a:e2:d3:a1:8b:5f:7f:69:61:3b:0b:ae:bc:8b:
                    ce:ab:01:53:77:0b:49:57:54:30:32:1d:01:7f:1e:
                    62:c0:17:99:bd:c3:a5:5c:25:2f:cc:9a:dc:a8:c5:
                    17:a2:6f:49:5a:37:d1:6a:28:50:6e:12:d4:15:63:
                    51:8e:e3:a9:b7:67:5a:c3:fe:f8:5a:61:5e:f7:cd:
                    74:70:28:8a:8e:f0:00:8b:54:f4:67:1f:ab:a2:c2:
                    07:c3:bb:d6:c8:39:04:8f:d9:18:dc:4d:58:89:27:
                    54:51:fd:7e:f1:56:8d:a1:d5:c5:22:a5:04:0d:03:
                    d1:48:ce:1b:25:3c:21:3e:76:87:22:fa:6e:d3:3f:
                    f3:57
                Exponent: 65537 (0x10001)
        X509v3 extensions:
            X509v3 Basic Constraints: 
                CA:FALSE
            X509v3 Subject Key Identifier: 
                AA:EF:B2:3F:6A:BD:20:A7:56:63:6C:DB:65:42:C3:6F:D7:C3:9C:FB
            X509v3 Authority Key Identifier: 
                keyid:6E:9C:52:A9:3D:5F:C9:FD:56:76:AC:FF:9B:B2:E8:0F:80:3A:E4:F8
                DirName:/CN=Easy-RSA CA
                serial:DD:50:59:51:23:78:4B:03

            X509v3 Extended Key Usage: 
                TLS Web Client Authentication
            X509v3 Key Usage: 
                Digital Signature
    Signature Algorithm: sha256WithRSAEncryption
         23:73:3e:02:19:c0:0d:bd:f6:74:61:01:5c:ad:14:4d:c0:c6:
         35:60:be:c0:0b:0d:75:0e:06:78:a5:20:a2:82:1b:08:c1:ea:
         d0:9d:75:d4:c4:88:3e:0b:4e:5b:9f:f4:94:09:43:81:1a:0c:
         9c:67:0e:ff:17:3b:c9:47:21:da:1b:05:f9:74:23:b9:f0:e8:
         68:d2:ba:b1:66:0f:09:64:75:e7:b6:2b:76:f0:74:40:b4:37:
         19:02:ad:4f:29:4e:a2:77:1e:bf:fb:27:62:eb:0d:35:45:ef:
         3c:32:00:aa:1c:17:d7:12:1b:10:6e:63:d1:84:25:e5:5e:de:
         4d:e1:43:f8:f8:36:40:05:6c:af:1c:05:46:2f:4d:8e:b2:13:
         52:65:28:88:d0:89:3e:ab:20:1b:b9:18:2b:4c:60:29:72:cd:
         68:8e:49:30:f6:d7:53:49:4b:52:0f:47:71:77:cd:2f:e4:5a:
         41:51:de:df:58:71:50:83:f2:6a:39:91:37:d7:62:c5:1a:77:
         e6:40:da:50:af:be:56:98:3d:69:2f:84:be:73:78:19:da:ab:
         09:a4:31:25:6b:45:74:30:18:7d:2f:bf:f8:fc:0c:8b:c3:24:
         85:99:19:c6:f5:dd:71:dc:a4:3d:dc:4e:5e:ea:8e:71:61:55:
         69:08:06:88
-----BEGIN CERTIFICATE-----
MIIDVTCCAj2gAwIBAgIQGLR4EHY0n/WFrRNL5r4SUTANBgkqhkiG9w0BAQsFADAW
MRQwEgYDVQQDDAtFYXN5LVJTQSBDQTAeFw0yMTA3MjQyMzE5MTFaFw0yMzEwMjcy
MzE5MTFaMB0xGzAZBgNVBAMMEmNsaWVudDEuZG9tYWluLnRsZDCCASIwDQYJKoZI
hvcNAQEBBQADggEPADCCAQoCggEBANtp3f+wDHbB1A6d2gNRu8obtwgPhMerygPa
Q7lAF7pbOmigzPefRSgNV6F5J9gPMY/28DNTj9+alNaVY9k8Z3pmmDn6T1lbudvz
Ms46iJUkighbv3RDaEsot55ckd3cdMkjc64bgfZWS5zrJTRzjL59S5En2qKILUri
06GLX39pYTsLrryLzqsBU3cLSVdUMDIdAX8eYsAXmb3DpVwlL8ya3KjFF6JvSVo3
0WooUG4S1BVjUY7jqbdnWsP++FphXvfNdHAoio7wAItU9Gcfq6LCB8O71sg5BI/Z
GNxNWIknVFH9fvFWjaHVxSKlBA0D0UjOGyU8IT52hyL6btM/81cCAwEAAaOBlzCB
lDAJBgNVHRMEAjAAMB0GA1UdDgQWBBSq77I/ar0gp1ZjbNtlQsNv18Oc+zBGBgNV
HSMEPzA9gBRunFKpPV/J/VZ2rP+bsugPgDrk+KEapBgwFjEUMBIGA1UEAwwLRWFz
eS1SU0EgQ0GCCQDdUFlRI3hLAzATBgNVHSUEDDAKBggrBgEFBQcDAjALBgNVHQ8E
BAMCB4AwDQYJKoZIhvcNAQELBQADggEBACNzPgIZwA299nRhAVytFE3AxjVgvsAL
DXUOBnilIKKCGwjB6tCdddTEiD4LTluf9JQJQ4EaDJxnDv8XO8lHIdobBfl0I7nw
6GjSurFmDwlkdee2K3bwdEC0NxkCrU8pTqJ3Hr/7J2LrDTVF7zwyAKocF9cSGxBu
Y9GEJeVe3k3hQ/j4NkAFbK8cBUYvTY6yE1JlKIjQiT6rIBu5GCtMYClyzWiOSTD2
11NJS1IPR3F3zS/kWkFR3t9YcVCD8mo5kTfXYsUad+ZA2lCvvlaYPWkvhL5zeBna
qwmkMSVrRXQwGH0vv/j8DIvDJIWZGcb13XHcpD3cTl7qjnFhVWkIBog=
-----END CERTIFICATE-----
